(lp0
(S'cppflags'
p1
ccopy_reg
_reconstructor
p2
(cino.utils
SpaceList
p3
c__builtin__
list
p4
(lp5
S'-mmcu=atmega328p'
p6
aS'-DF_CPU=16000000L'
p7
aS'-DARDUINO=105'
p8
aS'-I/usr/share/arduino/hardware/arduino/cores/arduino'
p9
aS'-ffunction-sections'
p10
aS'-fdata-sections'
p11
aS'-g'
p12
aS'-Os'
p13
aS'-w'
p14
aS'-I/usr/share/arduino/hardware/arduino/variants/standard'
p15
atp16
Rp17
tp18
a(S'version.txt'
p19
S'/usr/share/arduino/lib/version.txt'
p20
tp21
a(S'arduino_variants_dir'
p22
S'/usr/share/arduino/hardware/arduino/variants'
p23
tp24
a(S'cxx'
p25
S'/usr/share/arduino/hardware/tools/avr/bin/avr-g++'
p26
tp27
a(S'make'
p28
S'/usr/share/arduino/hardware/tools/avr/bin/make'
p29
tp30
a(S'build_dir'
p31
S'.build/uno'
p32
tp33
a(S'arduino_core_dir'
p34
S'/usr/share/arduino/hardware/arduino/cores/arduino'
p35
tp36
a(S'boards.txt'
p37
S'/usr/share/arduino/hardware/arduino/boards.txt'
p38
tp39
a(S'cxxflags'
p40
g2
(g3
g4
(lp41
S'-fno-exceptions'
p42
atp43
Rp44
tp45
a(S'cc'
p46
S'/usr/share/arduino/hardware/tools/avr/bin/avr-gcc'
p47
tp48
a(S'deps'
p49
g2
(g3
g4
(lp50
tp51
Rp52
tp53
a(S'ar'
p54
S'/usr/share/arduino/hardware/tools/avr/bin/avr-ar'
p55
tp56
a(S'names'
p57
(dp58
S'cpp'
p59
S'%s.cpp'
p60
sS'obj'
p61
S'%s.o'
p62
sS'deps'
p63
S'%s.d'
p64
sS'lib'
p65
S'lib%s.a'
p66
stp67
a(S'cflags'
p68
g2
(g3
g4
(lp69
tp70
Rp71
tp72
a(S'arduino_libraries_dir'
p73
S'/usr/share/arduino/libraries'
p74
tp75
a(S'arduino_lib_version'
p76
g2
(cino.environment
Version
p77
c__builtin__
tuple
p78
(I1
I0
I5
tp79
tp80
Rp81
tp82
a(S'objcopy'
p83
S'/usr/share/arduino/hardware/tools/avr/bin/avr-objcopy'
p84
tp85
a(S'board_models'
p86
cino.environment
BoardModels
p87
((lp88
(lp89
S'uno'
p90
a(dp91
S'bootloader'
p92
(dp93
S'extended_fuses'
p94
S'0x05'
p95
sS'high_fuses'
p96
S'0xde'
p97
sS'low_fuses'
p98
S'0xff'
p99
sS'lock_bits'
p100
S'0x0F'
p101
sS'file'
p102
S'optiboot_atmega328.hex'
p103
sS'path'
p104
S'optiboot'
p105
sS'unlock_bits'
p106
S'0x3F'
p107
ssS'upload'
p108
(dp109
S'speed'
p110
S'115200'
p111
sS'maximum_size'
p112
S'32256'
p113
sS'protocol'
p114
S'arduino'
p115
ssS'name'
p116
S'Arduino Uno'
p117
sS'build'
p118
(dp119
S'core'
p120
S'arduino'
p121
sS'mcu'
p122
S'atmega328p'
p123
sS'f_cpu'
p124
S'16000000L'
p125
sS'variant'
p126
S'standard'
p127
ssaa(lp128
S'atmega328'
p129
a(dp130
S'bootloader'
p131
(dp132
S'extended_fuses'
p133
S'0x05'
p134
sS'high_fuses'
p135
S'0xDA'
p136
sS'low_fuses'
p137
S'0xFF'
p138
sS'lock_bits'
p139
S'0x0F'
p140
sS'file'
p141
S'ATmegaBOOT_168_atmega328.hex'
p142
sS'path'
p143
S'atmega'
p144
sS'unlock_bits'
p145
S'0x3F'
p146
ssS'upload'
p147
(dp148
S'speed'
p149
S'57600'
p150
sS'maximum_size'
p151
S'30720'
p152
sS'protocol'
p153
S'arduino'
p154
ssS'name'
p155
S'Arduino Duemilanove w/ ATmega328'
p156
sS'build'
p157
(dp158
S'core'
p159
S'arduino'
p160
sS'mcu'
p161
S'atmega328p'
p162
sS'f_cpu'
p163
S'16000000L'
p164
sS'variant'
p165
S'standard'
p166
ssaa(lp167
S'diecimila'
p168
a(dp169
S'bootloader'
p170
(dp171
S'extended_fuses'
p172
S'0x00'
p173
sS'high_fuses'
p174
S'0xdd'
p175
sS'low_fuses'
p176
S'0xff'
p177
sS'lock_bits'
p178
S'0x0F'
p179
sS'file'
p180
S'ATmegaBOOT_168_diecimila.hex'
p181
sS'path'
p182
S'atmega'
p183
sS'unlock_bits'
p184
S'0x3F'
p185
ssS'upload'
p186
(dp187
S'speed'
p188
S'19200'
p189
sS'maximum_size'
p190
S'14336'
p191
sS'protocol'
p192
S'arduino'
p193
ssS'name'
p194
S'Arduino Diecimila or Duemilanove w/ ATmega168'
p195
sS'build'
p196
(dp197
S'core'
p198
S'arduino'
p199
sS'mcu'
p200
S'atmega168'
p201
sS'f_cpu'
p202
S'16000000L'
p203
sS'variant'
p204
S'standard'
p205
ssaa(lp206
S'nano328'
p207
a(dp208
S'bootloader'
p209
(dp210
S'extended_fuses'
p211
S'0x05'
p212
sS'high_fuses'
p213
S'0xDA'
p214
sS'low_fuses'
p215
S'0xFF'
p216
sS'lock_bits'
p217
S'0x0F'
p218
sS'file'
p219
S'ATmegaBOOT_168_atmega328.hex'
p220
sS'path'
p221
S'atmega'
p222
sS'unlock_bits'
p223
S'0x3F'
p224
ssS'upload'
p225
(dp226
S'speed'
p227
S'57600'
p228
sS'maximum_size'
p229
S'30720'
p230
sS'protocol'
p231
S'arduino'
p232
ssS'name'
p233
S'Arduino Nano w/ ATmega328'
p234
sS'build'
p235
(dp236
S'core'
p237
S'arduino'
p238
sS'mcu'
p239
S'atmega328p'
p240
sS'f_cpu'
p241
S'16000000L'
p242
sS'variant'
p243
S'eightanaloginputs'
p244
ssaa(lp245
S'nano'
p246
a(dp247
S'bootloader'
p248
(dp249
S'extended_fuses'
p250
S'0x00'
p251
sS'high_fuses'
p252
S'0xdd'
p253
sS'low_fuses'
p254
S'0xff'
p255
sS'lock_bits'
p256
S'0x0F'
p257
sS'file'
p258
S'ATmegaBOOT_168_diecimila.hex'
p259
sS'path'
p260
S'atmega'
p261
sS'unlock_bits'
p262
S'0x3F'
p263
ssS'upload'
p264
(dp265
S'speed'
p266
S'19200'
p267
sS'maximum_size'
p268
S'14336'
p269
sS'protocol'
p270
S'arduino'
p271
ssS'name'
p272
S'Arduino Nano w/ ATmega168'
p273
sS'build'
p274
(dp275
S'core'
p276
S'arduino'
p277
sS'mcu'
p278
S'atmega168'
p279
sS'f_cpu'
p280
S'16000000L'
p281
sS'variant'
p282
S'eightanaloginputs'
p283
ssaa(lp284
S'mega2560'
p285
a(dp286
S'bootloader'
p287
(dp288
S'extended_fuses'
p289
S'0xFD'
p290
sS'high_fuses'
p291
S'0xD8'
p292
sS'low_fuses'
p293
S'0xFF'
p294
sS'lock_bits'
p295
S'0x0F'
p296
sS'file'
p297
S'stk500boot_v2_mega2560.hex'
p298
sS'path'
p299
S'stk500v2'
p300
sS'unlock_bits'
p301
S'0x3F'
p302
ssS'upload'
p303
(dp304
S'speed'
p305
S'115200'
p306
sS'maximum_size'
p307
S'258048'
p308
sS'protocol'
p309
S'wiring'
p310
ssS'name'
p311
S'Arduino Mega 2560 or Mega ADK'
p312
sS'build'
p313
(dp314
S'core'
p315
S'arduino'
p316
sS'mcu'
p317
S'atmega2560'
p318
sS'f_cpu'
p319
S'16000000L'
p320
sS'variant'
p321
S'mega'
p322
ssaa(lp323
S'mega'
p324
a(dp325
S'bootloader'
p326
(dp327
S'extended_fuses'
p328
S'0xF5'
p329
sS'high_fuses'
p330
S'0xDA'
p331
sS'low_fuses'
p332
S'0xFF'
p333
sS'lock_bits'
p334
S'0x0F'
p335
sS'file'
p336
S'ATmegaBOOT_168_atmega1280.hex'
p337
sS'path'
p338
S'atmega'
p339
sS'unlock_bits'
p340
S'0x3F'
p341
ssS'upload'
p342
(dp343
S'speed'
p344
S'57600'
p345
sS'maximum_size'
p346
S'126976'
p347
sS'protocol'
p348
S'arduino'
p349
ssS'name'
p350
S'Arduino Mega (ATmega1280)'
p351
sS'build'
p352
(dp353
S'core'
p354
S'arduino'
p355
sS'mcu'
p356
S'atmega1280'
p357
sS'f_cpu'
p358
S'16000000L'
p359
sS'variant'
p360
S'mega'
p361
ssaa(lp362
S'leonardo'
p363
a(dp364
S'bootloader'
p365
(dp366
S'extended_fuses'
p367
S'0xcb'
p368
sS'high_fuses'
p369
S'0xd8'
p370
sS'low_fuses'
p371
S'0xff'
p372
sS'lock_bits'
p373
S'0x2F'
p374
sS'file'
p375
S'Caterina-Leonardo.hex'
p376
sS'path'
p377
S'caterina'
p378
sS'unlock_bits'
p379
S'0x3F'
p380
ssS'upload'
p381
(dp382
S'speed'
p383
S'57600'
p384
sS'maximum_size'
p385
S'28672'
p386
sS'protocol'
p387
S'avr109'
p388
sS'disable_flushing'
p389
S'true'
p390
ssS'name'
p391
S'Arduino Leonardo'
p392
sS'build'
p393
(dp394
S'core'
p395
S'arduino'
p396
sS'f_cpu'
p397
S'16000000L'
p398
sS'vid'
p399
S'0x2341'
p400
sS'pid'
p401
S'0x8036'
p402
sS'variant'
p403
S'leonardo'
p404
sS'mcu'
p405
S'atmega32u4'
p406
ssaa(lp407
S'esplora'
p408
a(dp409
S'bootloader'
p410
(dp411
S'extended_fuses'
p412
S'0xcb'
p413
sS'high_fuses'
p414
S'0xd8'
p415
sS'low_fuses'
p416
S'0xff'
p417
sS'lock_bits'
p418
S'0x2F'
p419
sS'file'
p420
S'Caterina-Esplora.hex'
p421
sS'path'
p422
S'caterina'
p423
sS'unlock_bits'
p424
S'0x3F'
p425
ssS'upload'
p426
(dp427
S'speed'
p428
S'57600'
p429
sS'maximum_size'
p430
S'28672'
p431
sS'protocol'
p432
S'avr109'
p433
sS'disable_flushing'
p434
S'true'
p435
ssS'name'
p436
S'Arduino Esplora'
p437
sS'build'
p438
(dp439
S'core'
p440
S'arduino'
p441
sS'f_cpu'
p442
S'16000000L'
p443
sS'vid'
p444
S'0x2341'
p445
sS'pid'
p446
S'0x803C'
p447
sS'variant'
p448
S'leonardo'
p449
sS'mcu'
p450
S'atmega32u4'
p451
ssaa(lp452
S'micro'
p453
a(dp454
S'bootloader'
p455
(dp456
S'extended_fuses'
p457
S'0xcb'
p458
sS'high_fuses'
p459
S'0xd8'
p460
sS'low_fuses'
p461
S'0xff'
p462
sS'lock_bits'
p463
S'0x2F'
p464
sS'file'
p465
S'Caterina-Micro.hex'
p466
sS'path'
p467
S'caterina'
p468
sS'unlock_bits'
p469
S'0x3F'
p470
ssS'upload'
p471
(dp472
S'speed'
p473
S'57600'
p474
sS'maximum_size'
p475
S'28672'
p476
sS'protocol'
p477
S'avr109'
p478
sS'disable_flushing'
p479
S'true'
p480
ssS'name'
p481
S'Arduino Micro'
p482
sS'build'
p483
(dp484
S'core'
p485
S'arduino'
p486
sS'f_cpu'
p487
S'16000000L'
p488
sS'vid'
p489
S'0x2341'
p490
sS'pid'
p491
S'0x8037'
p492
sS'variant'
p493
S'micro'
p494
sS'mcu'
p495
S'atmega32u4'
p496
ssaa(lp497
S'mini328'
p498
a(dp499
S'bootloader'
p500
(dp501
S'extended_fuses'
p502
S'0x05'
p503
sS'high_fuses'
p504
S'0xd8'
p505
sS'low_fuses'
p506
S'0xff'
p507
sS'lock_bits'
p508
S'0x0F'
p509
sS'file'
p510
S'optiboot_atmega328-Mini.hex'
p511
sS'path'
p512
S'optiboot'
p513
sS'unlock_bits'
p514
S'0x3F'
p515
ssS'upload'
p516
(dp517
S'speed'
p518
S'115200'
p519
sS'maximum_size'
p520
S'28672'
p521
sS'protocol'
p522
S'arduino'
p523
ssS'name'
p524
S'Arduino Mini w/ ATmega328'
p525
sS'build'
p526
(dp527
S'core'
p528
S'arduino'
p529
sS'mcu'
p530
S'atmega328p'
p531
sS'f_cpu'
p532
S'16000000L'
p533
sS'variant'
p534
S'eightanaloginputs'
p535
ssaa(lp536
S'mini'
p537
a(dp538
S'bootloader'
p539
(dp540
S'extended_fuses'
p541
S'0x00'
p542
sS'high_fuses'
p543
S'0xdd'
p544
sS'low_fuses'
p545
S'0xff'
p546
sS'lock_bits'
p547
S'0x0F'
p548
sS'file'
p549
S'ATmegaBOOT_168_ng.hex'
p550
sS'path'
p551
S'atmega'
p552
sS'unlock_bits'
p553
S'0x3F'
p554
ssS'upload'
p555
(dp556
S'speed'
p557
S'19200'
p558
sS'maximum_size'
p559
S'14336'
p560
sS'protocol'
p561
S'arduino'
p562
ssS'name'
p563
S'Arduino Mini w/ ATmega168'
p564
sS'build'
p565
(dp566
S'core'
p567
S'arduino'
p568
sS'mcu'
p569
S'atmega168'
p570
sS'f_cpu'
p571
S'16000000L'
p572
sS'variant'
p573
S'eightanaloginputs'
p574
ssaa(lp575
S'ethernet'
p576
a(dp577
S'bootloader'
p578
(dp579
S'extended_fuses'
p580
S'0x05'
p581
sS'high_fuses'
p582
S'0xde'
p583
sS'low_fuses'
p584
S'0xff'
p585
sS'lock_bits'
p586
S'0x0F'
p587
sS'file'
p588
S'optiboot_atmega328.hex'
p589
sS'path'
p590
S'optiboot'
p591
sS'unlock_bits'
p592
S'0x3F'
p593
ssS'upload'
p594
(dp595
S'speed'
p596
S'115200'
p597
sS'maximum_size'
p598
S'32256'
p599
sS'protocol'
p600
S'arduino'
p601
ssS'name'
p602
S'Arduino Ethernet'
p603
sS'build'
p604
(dp605
S'f_cpu'
p606
S'16000000L'
p607
sS'mcu'
p608
S'atmega328p'
p609
sS'variant'
p610
S'standard'
p611
sS'core'
p612
S'arduino'
p613
ssaa(lp614
S'fio'
p615
a(dp616
S'bootloader'
p617
(dp618
S'extended_fuses'
p619
S'0x05'
p620
sS'high_fuses'
p621
S'0xDA'
p622
sS'low_fuses'
p623
S'0xFF'
p624
sS'lock_bits'
p625
S'0x0F'
p626
sS'file'
p627
S'ATmegaBOOT_168_atmega328_pro_8MHz.hex'
p628
sS'path'
p629
S'arduino:atmega'
p630
sS'unlock_bits'
p631
S'0x3F'
p632
ssS'upload'
p633
(dp634
S'speed'
p635
S'57600'
p636
sS'maximum_size'
p637
S'30720'
p638
sS'protocol'
p639
S'arduino'
p640
ssS'name'
p641
S'Arduino Fio'
p642
sS'build'
p643
(dp644
S'core'
p645
S'arduino'
p646
sS'mcu'
p647
S'atmega328p'
p648
sS'f_cpu'
p649
S'8000000L'
p650
sS'variant'
p651
S'eightanaloginputs'
p652
ssaa(lp653
S'bt328'
p654
a(dp655
S'bootloader'
p656
(dp657
S'extended_fuses'
p658
S'0x05'
p659
sS'high_fuses'
p660
S'0xd8'
p661
sS'low_fuses'
p662
S'0xff'
p663
sS'lock_bits'
p664
S'0x0F'
p665
sS'file'
p666
S'ATmegaBOOT_168_atmega328_bt.hex'
p667
sS'path'
p668
S'bt'
p669
sS'unlock_bits'
p670
S'0x3F'
p671
ssS'upload'
p672
(dp673
S'speed'
p674
S'19200'
p675
sS'maximum_size'
p676
S'28672'
p677
sS'protocol'
p678
S'arduino'
p679
sS'disable_flushing'
p680
S'true'
p681
ssS'name'
p682
S'Arduino BT w/ ATmega328'
p683
sS'build'
p684
(dp685
S'core'
p686
S'arduino'
p687
sS'mcu'
p688
S'atmega328p'
p689
sS'f_cpu'
p690
S'16000000L'
p691
sS'variant'
p692
S'eightanaloginputs'
p693
ssaa(lp694
S'bt'
p695
a(dp696
S'bootloader'
p697
(dp698
S'extended_fuses'
p699
S'0x00'
p700
sS'high_fuses'
p701
S'0xdd'
p702
sS'low_fuses'
p703
S'0xff'
p704
sS'lock_bits'
p705
S'0x0F'
p706
sS'file'
p707
S'ATmegaBOOT_168.hex'
p708
sS'path'
p709
S'bt'
p710
sS'unlock_bits'
p711
S'0x3F'
p712
ssS'upload'
p713
(dp714
S'speed'
p715
S'19200'
p716
sS'maximum_size'
p717
S'14336'
p718
sS'protocol'
p719
S'arduino'
p720
sS'disable_flushing'
p721
S'true'
p722
ssS'name'
p723
S'Arduino BT w/ ATmega168'
p724
sS'build'
p725
(dp726
S'core'
p727
S'arduino'
p728
sS'mcu'
p729
S'atmega168'
p730
sS'f_cpu'
p731
S'16000000L'
p732
sS'variant'
p733
S'eightanaloginputs'
p734
ssaa(lp735
S'LilyPadUSB'
p736
a(dp737
S'bootloader'
p738
(dp739
S'extended_fuses'
p740
S'0xce'
p741
sS'high_fuses'
p742
S'0xd8'
p743
sS'low_fuses'
p744
S'0xff'
p745
sS'lock_bits'
p746
S'0x2F'
p747
sS'file'
p748
S'Caterina-LilyPadUSB.hex'
p749
sS'path'
p750
S'caterina-LilyPadUSB'
p751
sS'unlock_bits'
p752
S'0x3F'
p753
ssS'upload'
p754
(dp755
S'speed'
p756
S'57600'
p757
sS'maximum_size'
p758
S'28672'
p759
sS'protocol'
p760
S'avr109'
p761
sS'disable_flushing'
p762
S'true'
p763
ssS'name'
p764
S'LilyPad Arduino USB'
p765
sS'build'
p766
(dp767
S'core'
p768
S'arduino'
p769
sS'f_cpu'
p770
S'8000000L'
p771
sS'vid'
p772
S'0x1B4F'
p773
sS'pid'
p774
S'0x9208'
p775
sS'variant'
p776
S'leonardo'
p777
sS'mcu'
p778
S'atmega32u4'
p779
ssaa(lp780
S'lilypad328'
p781
a(dp782
S'bootloader'
p783
(dp784
S'extended_fuses'
p785
S'0x05'
p786
sS'high_fuses'
p787
S'0xDA'
p788
sS'low_fuses'
p789
S'0xFF'
p790
sS'lock_bits'
p791
S'0x0F'
p792
sS'file'
p793
S'ATmegaBOOT_168_atmega328_pro_8MHz.hex'
p794
sS'path'
p795
S'atmega'
p796
sS'unlock_bits'
p797
S'0x3F'
p798
ssS'upload'
p799
(dp800
S'speed'
p801
S'57600'
p802
sS'maximum_size'
p803
S'30720'
p804
sS'protocol'
p805
S'arduino'
p806
ssS'name'
p807
S'LilyPad Arduino w/ ATmega328'
p808
sS'build'
p809
(dp810
S'core'
p811
S'arduino'
p812
sS'mcu'
p813
S'atmega328p'
p814
sS'f_cpu'
p815
S'8000000L'
p816
sS'variant'
p817
S'standard'
p818
ssaa(lp819
S'lilypad'
p820
a(dp821
S'bootloader'
p822
(dp823
S'extended_fuses'
p824
S'0x00'
p825
sS'high_fuses'
p826
S'0xdd'
p827
sS'low_fuses'
p828
S'0xe2'
p829
sS'lock_bits'
p830
S'0x0F'
p831
sS'file'
p832
S'LilyPadBOOT_168.hex'
p833
sS'path'
p834
S'lilypad'
p835
sS'unlock_bits'
p836
S'0x3F'
p837
ssS'upload'
p838
(dp839
S'speed'
p840
S'19200'
p841
sS'maximum_size'
p842
S'14336'
p843
sS'protocol'
p844
S'arduino'
p845
ssS'name'
p846
S'LilyPad Arduino w/ ATmega168'
p847
sS'build'
p848
(dp849
S'core'
p850
S'arduino'
p851
sS'mcu'
p852
S'atmega168'
p853
sS'f_cpu'
p854
S'8000000L'
p855
sS'variant'
p856
S'standard'
p857
ssaa(lp858
S'pro5v328'
p859
a(dp860
S'bootloader'
p861
(dp862
S'extended_fuses'
p863
S'0x05'
p864
sS'high_fuses'
p865
S'0xDA'
p866
sS'low_fuses'
p867
S'0xFF'
p868
sS'lock_bits'
p869
S'0x0F'
p870
sS'file'
p871
S'ATmegaBOOT_168_atmega328.hex'
p872
sS'path'
p873
S'atmega'
p874
sS'unlock_bits'
p875
S'0x3F'
p876
ssS'upload'
p877
(dp878
S'speed'
p879
S'57600'
p880
sS'maximum_size'
p881
S'30720'
p882
sS'protocol'
p883
S'arduino'
p884
ssS'name'
p885
S'Arduino Pro or Pro Mini (5V, 16 MHz) w/ ATmega328'
p886
sS'build'
p887
(dp888
S'core'
p889
S'arduino'
p890
sS'mcu'
p891
S'atmega328p'
p892
sS'f_cpu'
p893
S'16000000L'
p894
sS'variant'
p895
S'standard'
p896
ssaa(lp897
S'pro5v'
p898
a(dp899
S'bootloader'
p900
(dp901
S'extended_fuses'
p902
S'0x00'
p903
sS'high_fuses'
p904
S'0xdd'
p905
sS'low_fuses'
p906
S'0xff'
p907
sS'lock_bits'
p908
S'0x0F'
p909
sS'file'
p910
S'ATmegaBOOT_168_diecimila.hex'
p911
sS'path'
p912
S'atmega'
p913
sS'unlock_bits'
p914
S'0x3F'
p915
ssS'upload'
p916
(dp917
S'speed'
p918
S'19200'
p919
sS'maximum_size'
p920
S'14336'
p921
sS'protocol'
p922
S'arduino'
p923
ssS'name'
p924
S'Arduino Pro or Pro Mini (5V, 16 MHz) w/ ATmega168'
p925
sS'build'
p926
(dp927
S'core'
p928
S'arduino'
p929
sS'mcu'
p930
S'atmega168'
p931
sS'f_cpu'
p932
S'16000000L'
p933
sS'variant'
p934
S'standard'
p935
ssaa(lp936
S'pro328'
p937
a(dp938
S'bootloader'
p939
(dp940
S'extended_fuses'
p941
S'0x05'
p942
sS'high_fuses'
p943
S'0xDA'
p944
sS'low_fuses'
p945
S'0xFF'
p946
sS'lock_bits'
p947
S'0x0F'
p948
sS'file'
p949
S'ATmegaBOOT_168_atmega328_pro_8MHz.hex'
p950
sS'path'
p951
S'atmega'
p952
sS'unlock_bits'
p953
S'0x3F'
p954
ssS'upload'
p955
(dp956
S'speed'
p957
S'57600'
p958
sS'maximum_size'
p959
S'30720'
p960
sS'protocol'
p961
S'arduino'
p962
ssS'name'
p963
S'Arduino Pro or Pro Mini (3.3V, 8 MHz) w/ ATmega328'
p964
sS'build'
p965
(dp966
S'core'
p967
S'arduino'
p968
sS'mcu'
p969
S'atmega328p'
p970
sS'f_cpu'
p971
S'8000000L'
p972
sS'variant'
p973
S'standard'
p974
ssaa(lp975
S'pro'
p976
a(dp977
S'bootloader'
p978
(dp979
S'extended_fuses'
p980
S'0x00'
p981
sS'high_fuses'
p982
S'0xdd'
p983
sS'low_fuses'
p984
S'0xc6'
p985
sS'lock_bits'
p986
S'0x0F'
p987
sS'file'
p988
S'ATmegaBOOT_168_pro_8MHz.hex'
p989
sS'path'
p990
S'atmega'
p991
sS'unlock_bits'
p992
S'0x3F'
p993
ssS'upload'
p994
(dp995
S'speed'
p996
S'19200'
p997
sS'maximum_size'
p998
S'14336'
p999
sS'protocol'
p1000
S'arduino'
p1001
ssS'name'
p1002
S'Arduino Pro or Pro Mini (3.3V, 8 MHz) w/ ATmega168'
p1003
sS'build'
p1004
(dp1005
S'core'
p1006
S'arduino'
p1007
sS'mcu'
p1008
S'atmega168'
p1009
sS'f_cpu'
p1010
S'8000000L'
p1011
sS'variant'
p1012
S'standard'
p1013
ssaa(lp1014
S'atmega168'
p1015
a(dp1016
S'bootloader'
p1017
(dp1018
S'extended_fuses'
p1019
S'0x00'
p1020
sS'high_fuses'
p1021
S'0xdd'
p1022
sS'low_fuses'
p1023
S'0xff'
p1024
sS'lock_bits'
p1025
S'0x0F'
p1026
sS'file'
p1027
S'ATmegaBOOT_168_ng.hex'
p1028
sS'path'
p1029
S'atmega'
p1030
sS'unlock_bits'
p1031
S'0x3F'
p1032
ssS'upload'
p1033
(dp1034
S'speed'
p1035
S'19200'
p1036
sS'maximum_size'
p1037
S'14336'
p1038
sS'protocol'
p1039
S'arduino'
p1040
ssS'name'
p1041
S'Arduino NG or older w/ ATmega168'
p1042
sS'build'
p1043
(dp1044
S'core'
p1045
S'arduino'
p1046
sS'mcu'
p1047
S'atmega168'
p1048
sS'f_cpu'
p1049
S'16000000L'
p1050
sS'variant'
p1051
S'standard'
p1052
ssaa(lp1053
S'atmega8'
p1054
a(dp1055
S'bootloader'
p1056
(dp1057
S'high_fuses'
p1058
S'0xca'
p1059
sS'low_fuses'
p1060
S'0xdf'
p1061
sS'lock_bits'
p1062
S'0x0F'
p1063
sS'file'
p1064
S'ATmegaBOOT-prod-firmware-2009-11-07.hex'
p1065
sS'path'
p1066
S'atmega8'
p1067
sS'unlock_bits'
p1068
S'0x3F'
p1069
ssS'upload'
p1070
(dp1071
S'speed'
p1072
S'19200'
p1073
sS'maximum_size'
p1074
S'7168'
p1075
sS'protocol'
p1076
S'arduino'
p1077
ssS'name'
p1078
S'Arduino NG or older w/ ATmega8'
p1079
sS'build'
p1080
(dp1081
S'core'
p1082
S'arduino'
p1083
sS'mcu'
p1084
S'atmega8'
p1085
sS'f_cpu'
p1086
S'16000000L'
p1087
sS'variant'
p1088
S'standard'
p1089
ssaa(lp1090
S'robotControl'
p1091
a(dp1092
S'bootloader'
p1093
(dp1094
S'extended_fuses'
p1095
S'0xcb'
p1096
sS'high_fuses'
p1097
S'0xd8'
p1098
sS'low_fuses'
p1099
S'0xff'
p1100
sS'lock_bits'
p1101
S'0x2F'
p1102
sS'file'
p1103
S'Caterina-Robot-Control.hex'
p1104
sS'path'
p1105
S'caterina-Arduino_Robot'
p1106
sS'unlock_bits'
p1107
S'0x3F'
p1108
ssS'upload'
p1109
(dp1110
S'speed'
p1111
S'57600'
p1112
sS'maximum_size'
p1113
S'28672'
p1114
sS'protocol'
p1115
S'avr109'
p1116
sS'disable_flushing'
p1117
S'true'
p1118
ssS'name'
p1119
S'Arduino Robot Control'
p1120
sS'build'
p1121
(dp1122
S'core'
p1123
S'robot'
p1124
sS'f_cpu'
p1125
S'16000000L'
p1126
sS'vid'
p1127
S'0x2341'
p1128
sS'pid'
p1129
S'0x8038'
p1130
sS'variant'
p1131
S'robot_control'
p1132
sS'mcu'
p1133
S'atmega32u4'
p1134
ssaa(lp1135
S'robotMotor'
p1136
a(dp1137
S'bootloader'
p1138
(dp1139
S'extended_fuses'
p1140
S'0xcb'
p1141
sS'high_fuses'
p1142
S'0xd8'
p1143
sS'low_fuses'
p1144
S'0xff'
p1145
sS'lock_bits'
p1146
S'0x2F'
p1147
sS'file'
p1148
S'Caterina-Robot-Motor.hex'
p1149
sS'path'
p1150
S'caterina-Arduino_Robot'
p1151
sS'unlock_bits'
p1152
S'0x3F'
p1153
ssS'upload'
p1154
(dp1155
S'speed'
p1156
S'57600'
p1157
sS'maximum_size'
p1158
S'28672'
p1159
sS'protocol'
p1160
S'avr109'
p1161
sS'disable_flushing'
p1162
S'true'
p1163
ssS'name'
p1164
S'Arduino Robot Motor'
p1165
sS'build'
p1166
(dp1167
S'core'
p1168
S'robot'
p1169
sS'f_cpu'
p1170
S'16000000L'
p1171
sS'vid'
p1172
S'0x2341'
p1173
sS'pid'
p1174
S'0x8039'
p1175
sS'variant'
p1176
S'robot_motor'
p1177
sS'mcu'
p1178
S'atmega32u4'
p1179
ssaatp1180
Rp1181
(dp1182
S'default'
p1183
S'uno'
p1184
sbtp1185
a(S'ldflags'
p1186
g2
(g3
g4
(lp1187
g6
aS'-Wl,-Os'
p1188
aS'-Wl,--gc-sections'
p1189
atp1190
Rp1191
tp1192
a.